target datalayout = "e-m:e-p270:32:32-p271:32:32-p272:64:64-i64:64-i128:128-f80:128-n8:16:32:64-S128"
target triple = "x86_64-pc-linux-gnu"

%struct.conversation = type { ptr, ptr, ptr, i32, i32, i32, ptr, ptr, i32, ptr }

; Function Attrs: null_pointer_is_valid sspstrong uwtable
define void @conversation_set_dissector_from_frame_number(ptr noundef %0, i32 noundef %1, ptr noundef %2) #0 {
  %4 = alloca ptr, align 8
  %5 = alloca i32, align 4
  %6 = alloca ptr, align 8
  store ptr %0, ptr %4, align 8
  store i32 %1, ptr %5, align 4
  store ptr %2, ptr %6, align 8
  %7 = load ptr, ptr %4, align 8
  %8 = getelementptr inbounds nuw %struct.conversation, ptr %7, i32 0, i32 7
  %9 = load ptr, ptr %8, align 8
  %10 = icmp ne ptr %9, null
  br i1 %10, label %16, label %11

11:                                               ; preds = %3
  %12 = call ptr @wmem_file_scope()
  %13 = call noalias ptr @wmem_tree_new(ptr noundef %12)
  %14 = load ptr, ptr %4, align 8
  %15 = getelementptr inbounds nuw %struct.conversation, ptr %14, i32 0, i32 7
  store ptr %13, ptr %15, align 8
  br label %16

16:                                               ; preds = %11, %3
  %17 = load ptr, ptr %4, align 8
  %18 = getelementptr inbounds nuw %struct.conversation, ptr %17, i32 0, i32 7
  %19 = load ptr, ptr %18, align 8
  %20 = load i32, ptr %5, align 4
  %21 = load ptr, ptr %6, align 8
  call void @wmem_tree_insert32(ptr noundef %19, i32 noundef %20, ptr noundef %21)
  ret void
}

; Function Attrs: null_pointer_is_valid sspstrong uwtable
define void @conversation_set_dissector(ptr noundef %0, ptr noundef %1) #0 {
  %3 = alloca ptr, align 8
  %4 = alloca ptr, align 8
  store ptr %0, ptr %3, align 8
  store ptr %1, ptr %4, align 8
  %5 = load ptr, ptr %3, align 8
  %6 = load ptr, ptr %4, align 8
  call void @conversation_set_dissector_from_frame_number(ptr noundef %5, i32 noundef 0, ptr noundef %6)
  ret void
}