; Function Attrs: null_pointer_is_valid sspstrong uwtable
define void @conversation_set_dissector(ptr noundef captures(none) %0, ptr noundef %1) local_unnamed_addr #0 {
  %3 = getelementptr inbounds nuw i8, ptr %0, i64 48
  %4 = load ptr, ptr %3, align 8
  %.not.i = icmp eq ptr %4, null
  br i1 %.not.i, label %5, label %conversation_set_dissector_from_frame_number.exit

5:                                                ; preds = %2
  %6 = tail call ptr @wmem_file_scope()
  %7 = tail call noalias ptr @wmem_tree_new(ptr noundef %6)
  store ptr %7, ptr %3, align 8
  br label %conversation_set_dissector_from_frame_number.exit

conversation_set_dissector_from_frame_number.exit: ; preds = %2, %5
  %8 = phi ptr [ %7, %5 ], [ %4, %2 ]
  tail call void @wmem_tree_insert32(ptr noundef %8, i32 noundef 0, ptr noundef %1)
  ret void
}